; Function Attrs: nounwind sspstrong uwtable
define internal i64 @rb_f_sleep(i32 noundef %0, ptr noundef %1, i64 %2) #1 {
  %4 = tail call i64 @time(ptr noundef null) #27
  %5 = tail call i64 @rb_fiber_scheduler_current() #27
  %.not = icmp eq i64 %5, 4
  br i1 %.not, label %8, label %6

6:                                                ; preds = %3
  %7 = tail call i64 @rb_fiber_scheduler_kernel_sleepv(i64 noundef %5, i32 noundef %0, ptr noundef %1) #27
  br label %16

8:                                                ; preds = %3
  switch i32 %0, label %.split [
    i32 0, label %12
    i32 1, label %9
  ]

.split:                                           ; preds = %8
  tail call void @rb_error_arity(i32 noundef %0, i32 noundef 0, i32 noundef 1) #29
  unreachable

9:                                                ; preds = %8
  %10 = load i64, ptr %1, align 8, !tbaa !43
  %11 = icmp eq i64 %10, 4
  br i1 %11, label %12, label %.split10

12:                                               ; preds = %8, %9
  tail call void @rb_thread_sleep_forever() #27
  br label %16

.split10:                                         ; preds = %9
  %13 = tail call { i64, i64 } @rb_time_interval(i64 noundef %10) #27
  %14 = extractvalue { i64, i64 } %13, 0
  %15 = extractvalue { i64, i64 } %13, 1
  tail call void @rb_thread_wait_for(i64 %14, i64 %15) #27
  br label %16

16:                                               ; preds = %12, %.split10, %6
  %17 = tail call i64 @time(ptr noundef null) #27
  %18 = sub i64 %17, %4
  %19 = add i64 %18, 4611686018427387904
  %or.cond.i = icmp sgt i64 %19, -1
  br i1 %or.cond.i, label %20, label %23

20:                                               ; preds = %16
  %21 = shl nsw i64 %18, 1
  %22 = or disjoint i64 %21, 1
  br label %rb_long2num_inline.exit

23:                                               ; preds = %16
  %24 = tail call i64 @rb_int2big(i64 noundef %18) #27
  br label %rb_long2num_inline.exit

rb_long2num_inline.exit:                          ; preds = %20, %23
  %.0.i = phi i64 [ %22, %20 ], [ %24, %23 ]
  ret i64 %.0.i
}